target datalayout = "e-m:e-p270:32:32-p271:32:32-p272:64:64-i64:64-i128:128-f80:128-n8:16:32:64-S128"
target triple = "x86_64-pc-linux-gnu"

%struct._zend_array = type { %struct._zend_refcounted_h, %union.anon.0, i32, %union.anon.1, i32, i32, i32, i32, i64, ptr }
%struct._zend_refcounted_h = type { i32, %union.anon }
%union.anon = type { i32 }
%union.anon.0 = type { i32 }
%union.anon.1 = type { ptr }
%struct._zend_string = type { %struct._zend_refcounted_h, i64, i64, [1 x i8] }
%struct._zend_op_array = type { i8, [3 x i8], i32, ptr, ptr, ptr, i32, i32, ptr, ptr, ptr, ptr, i32, i32, i32, i32, ptr, ptr, ptr, ptr, ptr, i32, i32, ptr, ptr, ptr, i32, i32, i32, i32, ptr, ptr, [6 x ptr] }
%struct._zend_ssa = type { %struct._zend_cfg, i32, i32, ptr, ptr, ptr, ptr }
%struct._zend_cfg = type { i32, i32, ptr, ptr, ptr, i32 }
%struct._zend_ssa_range = type { i64, i64, i8, i8 }
%struct._zend_class_entry = type { i8, ptr, %union.anon.8, i32, i32, i32, i32, ptr, ptr, ptr, %struct._zend_array, %struct._zend_array, %struct._zend_array, ptr, ptr, ptr, ptr, ptr, ptr, ptr, ptr, ptr, ptr, ptr, ptr, ptr, ptr, ptr, ptr, ptr, ptr, ptr, %union.anon.9, ptr, ptr, ptr, ptr, i32, i32, %union.anon.10, ptr, ptr, ptr, ptr, i32, ptr, ptr, %union.anon.11 }
%union.anon.8 = type { ptr }
%union.anon.9 = type { ptr }
%union.anon.10 = type { ptr }
%union.anon.11 = type { %struct.anon.12 }
%struct.anon.12 = type { ptr, i32, i32 }
%struct._zend_ssa_block = type { ptr }
%struct._zend_ssa_phi = type { ptr, i32, %union._zend_ssa_pi_constraint, i32, i32, i32, i8, ptr, ptr, ptr }
%union._zend_ssa_pi_constraint = type { %struct._zend_ssa_range_constraint }
%struct._zend_ssa_range_constraint = type { %struct._zend_ssa_range, i32, i32, i32, i32, i32 }

@stderr = external global ptr, align 8
@.str = private unnamed_addr constant [3 x i8] c", \00", align 1
@.str.13 = private unnamed_addr constant [10 x i8] c"CV%d($%s)\00", align 1
@.str.14 = private unnamed_addr constant [4 x i8] c"V%d\00", align 1
@.str.15 = private unnamed_addr constant [4 x i8] c"T%d\00", align 1
@.str.16 = private unnamed_addr constant [4 x i8] c"X%d\00", align 1
@.str.22 = private unnamed_addr constant [3 x i8] c"%s\00", align 1
@.str.70 = private unnamed_addr constant [7 x i8] c"%s::%s\00", align 1
@.str.71 = private unnamed_addr constant [7 x i8] c"$_main\00", align 1
@.str.104 = private unnamed_addr constant [3 x i8] c"\22\0A\00", align 1
@.str.112 = private unnamed_addr constant [9 x i8] c"  BB%d:\0A\00", align 1
@.str.117 = private unnamed_addr constant [27 x i8] c"\0ASSA Phi() Placement for \22\00", align 1
@.str.118 = private unnamed_addr constant [11 x i8] c"    ; pi={\00", align 1
@.str.119 = private unnamed_addr constant [12 x i8] c"    ; phi={\00", align 1
@.str.120 = private unnamed_addr constant [3 x i8] c"}\0A\00", align 1

; Function Attrs: nounwind uwtable
define void @zend_dump_var(ptr noundef %0, i8 noundef zeroext %1, i32 noundef %2) #0 {
  %4 = alloca ptr, align 8
  %5 = alloca i8, align 1
  %6 = alloca i32, align 4
  store ptr %0, ptr %4, align 8
  store i8 %1, ptr %5, align 1
  store i32 %2, ptr %6, align 4
  %7 = load i8, ptr %5, align 1
  %8 = zext i8 %7 to i32
  %9 = icmp eq i32 %8, 8
  br i1 %9, label %10, label %29

10:                                               ; preds = %3
  %11 = load i32, ptr %6, align 4
  %12 = load ptr, ptr %4, align 8
  %13 = getelementptr inbounds %struct._zend_op_array, ptr %12, i32 0, i32 14
  %14 = load i32, ptr %13, align 8
  %15 = icmp slt i32 %11, %14
  br i1 %15, label %16, label %29

16:                                               ; preds = %10
  %17 = load ptr, ptr @stderr, align 8
  %18 = load i32, ptr %6, align 4
  %19 = load ptr, ptr %4, align 8
  %20 = getelementptr inbounds %struct._zend_op_array, ptr %19, i32 0, i32 19
  %21 = load ptr, ptr %20, align 8
  %22 = load i32, ptr %6, align 4
  %23 = sext i32 %22 to i64
  %24 = getelementptr inbounds ptr, ptr %21, i64 %23
  %25 = load ptr, ptr %24, align 8
  %26 = getelementptr inbounds %struct._zend_string, ptr %25, i32 0, i32 3
  %27 = getelementptr inbounds [1 x i8], ptr %26, i64 0, i64 0
  %28 = call i32 (ptr, ptr, ...) @fprintf(ptr noundef %17, ptr noundef @.str.13, i32 noundef %18, ptr noundef %27) #4
  br label %52

29:                                               ; preds = %10, %3
  %30 = load i8, ptr %5, align 1
  %31 = zext i8 %30 to i32
  %32 = icmp eq i32 %31, 4
  br i1 %32, label %33, label %37

33:                                               ; preds = %29
  %34 = load ptr, ptr @stderr, align 8
  %35 = load i32, ptr %6, align 4
  %36 = call i32 (ptr, ptr, ...) @fprintf(ptr noundef %34, ptr noundef @.str.14, i32 noundef %35) #4
  br label %51

37:                                               ; preds = %29
  %38 = load i8, ptr %5, align 1
  %39 = zext i8 %38 to i32
  %40 = and i32 %39, 6
  %41 = icmp eq i32 %40, 2
  br i1 %41, label %42, label %46

42:                                               ; preds = %37
  %43 = load ptr, ptr @stderr, align 8
  %44 = load i32, ptr %6, align 4
  %45 = call i32 (ptr, ptr, ...) @fprintf(ptr noundef %43, ptr noundef @.str.15, i32 noundef %44) #4
  br label %50

46:                                               ; preds = %37
  %47 = load ptr, ptr @stderr, align 8
  %48 = load i32, ptr %6, align 4
  %49 = call i32 (ptr, ptr, ...) @fprintf(ptr noundef %47, ptr noundef @.str.16, i32 noundef %48) #4
  br label %50

50:                                               ; preds = %46, %42
  br label %51

51:                                               ; preds = %50, %33
  br label %52

52:                                               ; preds = %51, %16
  ret void
}

; Function Attrs: nounwind uwtable
define hidden void @zend_dump_op_array_name(ptr noundef %0) #0 {
  %2 = alloca ptr, align 8
  store ptr %0, ptr %2, align 8
  %3 = load ptr, ptr %2, align 8
  %4 = getelementptr inbounds %struct._zend_op_array, ptr %3, i32 0, i32 3
  %5 = load ptr, ptr %4, align 8
  %6 = icmp ne ptr %5, null
  br i1 %6, label %7, label %43

7:                                                ; preds = %1
  %8 = load ptr, ptr %2, align 8
  %9 = getelementptr inbounds %struct._zend_op_array, ptr %8, i32 0, i32 4
  %10 = load ptr, ptr %9, align 8
  %11 = icmp ne ptr %10, null
  br i1 %11, label %12, label %34

12:                                               ; preds = %7
  %13 = load ptr, ptr %2, align 8
  %14 = getelementptr inbounds %struct._zend_op_array, ptr %13, i32 0, i32 4
  %15 = load ptr, ptr %14, align 8
  %16 = getelementptr inbounds %struct._zend_class_entry, ptr %15, i32 0, i32 1
  %17 = load ptr, ptr %16, align 8
  %18 = icmp ne ptr %17, null
  br i1 %18, label %19, label %34

19:                                               ; preds = %12
  %20 = load ptr, ptr @stderr, align 8
  %21 = load ptr, ptr %2, align 8
  %22 = getelementptr inbounds %struct._zend_op_array, ptr %21, i32 0, i32 4
  %23 = load ptr, ptr %22, align 8
  %24 = getelementptr inbounds %struct._zend_class_entry, ptr %23, i32 0, i32 1
  %25 = load ptr, ptr %24, align 8
  %26 = getelementptr inbounds %struct._zend_string, ptr %25, i32 0, i32 3
  %27 = getelementptr inbounds [1 x i8], ptr %26, i64 0, i64 0
  %28 = load ptr, ptr %2, align 8
  %29 = getelementptr inbounds %struct._zend_op_array, ptr %28, i32 0, i32 3
  %30 = load ptr, ptr %29, align 8
  %31 = getelementptr inbounds %struct._zend_string, ptr %30, i32 0, i32 3
  %32 = getelementptr inbounds [1 x i8], ptr %31, i64 0, i64 0
  %33 = call i32 (ptr, ptr, ...) @fprintf(ptr noundef %20, ptr noundef @.str.70, ptr noundef %27, ptr noundef %32) #4
  br label %42

34:                                               ; preds = %12, %7
  %35 = load ptr, ptr @stderr, align 8
  %36 = load ptr, ptr %2, align 8
  %37 = getelementptr inbounds %struct._zend_op_array, ptr %36, i32 0, i32 3
  %38 = load ptr, ptr %37, align 8
  %39 = getelementptr inbounds %struct._zend_string, ptr %38, i32 0, i32 3
  %40 = getelementptr inbounds [1 x i8], ptr %39, i64 0, i64 0
  %41 = call i32 (ptr, ptr, ...) @fprintf(ptr noundef %35, ptr noundef @.str.22, ptr noundef %40) #4
  br label %42

42:                                               ; preds = %34, %19
  br label %46

43:                                               ; preds = %1
  %44 = load ptr, ptr @stderr, align 8
  %45 = call i32 (ptr, ptr, ...) @fprintf(ptr noundef %44, ptr noundef @.str.22, ptr noundef @.str.71) #4
  br label %46

46:                                               ; preds = %43, %42
  ret void
}

; Function Attrs: nounwind uwtable
define hidden void @zend_dump_phi_placement(ptr noundef %0, ptr noundef %1) #0 {
  %3 = alloca ptr, align 8
  %4 = alloca ptr, align 8
  %5 = alloca i32, align 4
  %6 = alloca ptr, align 8
  %7 = alloca i32, align 4
  %8 = alloca ptr, align 8
  %9 = alloca i32, align 4
  store ptr %0, ptr %3, align 8
  store ptr %1, ptr %4, align 8
  %10 = load ptr, ptr %4, align 8
  %11 = getelementptr inbounds %struct._zend_ssa, ptr %10, i32 0, i32 3
  %12 = load ptr, ptr %11, align 8
  store ptr %12, ptr %6, align 8
  %13 = load ptr, ptr %4, align 8
  %14 = getelementptr inbounds %struct._zend_ssa, ptr %13, i32 0, i32 0
  %15 = getelementptr inbounds %struct._zend_cfg, ptr %14, i32 0, i32 0
  %16 = load i32, ptr %15, align 8
  store i32 %16, ptr %7, align 4
  %17 = load ptr, ptr @stderr, align 8
  %18 = call i32 (ptr, ptr, ...) @fprintf(ptr noundef %17, ptr noundef @.str.117) #4
  %19 = load ptr, ptr %3, align 8
  call void @zend_dump_op_array_name(ptr noundef %19)
  %20 = load ptr, ptr @stderr, align 8
  %21 = call i32 (ptr, ptr, ...) @fprintf(ptr noundef %20, ptr noundef @.str.104) #4
  store i32 0, ptr %5, align 4
  br label %22

22:                                               ; preds = %80, %2
  %23 = load i32, ptr %5, align 4
  %24 = load i32, ptr %7, align 4
  %25 = icmp slt i32 %23, %24
  br i1 %25, label %26, label %83

26:                                               ; preds = %22
  %27 = load ptr, ptr %6, align 8
  %28 = icmp ne ptr %27, null
  br i1 %28, label %29, label %79

29:                                               ; preds = %26
  %30 = load ptr, ptr %6, align 8
  %31 = load i32, ptr %5, align 4
  %32 = sext i32 %31 to i64
  %33 = getelementptr inbounds %struct._zend_ssa_block, ptr %30, i64 %32
  %34 = getelementptr inbounds %struct._zend_ssa_block, ptr %33, i32 0, i32 0
  %35 = load ptr, ptr %34, align 8
  %36 = icmp ne ptr %35, null
  br i1 %36, label %37, label %79

37:                                               ; preds = %29
  %38 = load ptr, ptr %6, align 8
  %39 = load i32, ptr %5, align 4
  %40 = sext i32 %39 to i64
  %41 = getelementptr inbounds %struct._zend_ssa_block, ptr %38, i64 %40
  %42 = getelementptr inbounds %struct._zend_ssa_block, ptr %41, i32 0, i32 0
  %43 = load ptr, ptr %42, align 8
  store ptr %43, ptr %8, align 8
  store i32 1, ptr %9, align 4
  %44 = load ptr, ptr @stderr, align 8
  %45 = load i32, ptr %5, align 4
  %46 = call i32 (ptr, ptr, ...) @fprintf(ptr noundef %44, ptr noundef @.str.112, i32 noundef %45) #4
  %47 = load ptr, ptr %8, align 8
  %48 = getelementptr inbounds %struct._zend_ssa_phi, ptr %47, i32 0, i32 1
  %49 = load i32, ptr %48, align 8
  %50 = icmp sge i32 %49, 0
  br i1 %50, label %51, label %54

51:                                               ; preds = %37
  %52 = load ptr, ptr @stderr, align 8
  %53 = call i32 (ptr, ptr, ...) @fprintf(ptr noundef %52, ptr noundef @.str.118) #4
  br label %57

54:                                               ; preds = %37
  %55 = load ptr, ptr @stderr, align 8
  %56 = call i32 (ptr, ptr, ...) @fprintf(ptr noundef %55, ptr noundef @.str.119) #4
  br label %57

57:                                               ; preds = %54, %51
  br label %58

58:                                               ; preds = %73, %57
  %59 = load i32, ptr %9, align 4
  %60 = icmp ne i32 %59, 0
  br i1 %60, label %61, label %62

61:                                               ; preds = %58
  store i32 0, ptr %9, align 4
  br label %65

62:                                               ; preds = %58
  %63 = load ptr, ptr @stderr, align 8
  %64 = call i32 (ptr, ptr, ...) @fprintf(ptr noundef %63, ptr noundef @.str) #4
  br label %65

65:                                               ; preds = %62, %61
  %66 = load ptr, ptr %3, align 8
  %67 = load ptr, ptr %8, align 8
  %68 = getelementptr inbounds %struct._zend_ssa_phi, ptr %67, i32 0, i32 3
  %69 = load i32, ptr %68, align 8
  call void @zend_dump_var(ptr noundef %66, i8 noundef zeroext 8, i32 noundef %69)
  %70 = load ptr, ptr %8, align 8
  %71 = getelementptr inbounds %struct._zend_ssa_phi, ptr %70, i32 0, i32 0
  %72 = load ptr, ptr %71, align 8
  store ptr %72, ptr %8, align 8
  br label %73

73:                                               ; preds = %65
  %74 = load ptr, ptr %8, align 8
  %75 = icmp ne ptr %74, null
  br i1 %75, label %58, label %76

76:                                               ; preds = %73
  %77 = load ptr, ptr @stderr, align 8
  %78 = call i32 (ptr, ptr, ...) @fprintf(ptr noundef %77, ptr noundef @.str.120) #4
  br label %79

79:                                               ; preds = %76, %29, %26
  br label %80

80:                                               ; preds = %79
  %81 = load i32, ptr %5, align 4
  %82 = add nsw i32 %81, 1
  store i32 %82, ptr %5, align 4
  br label %22

83:                                               ; preds = %22
  ret void
}