; Function Attrs: nofree nounwind uwtable
define hidden void @zend_dump_phi_placement(ptr nocapture noundef readonly %0, ptr nocapture noundef readonly %1) local_unnamed_addr #3 {
  %3 = getelementptr inbounds i8, ptr %1, i64 48
  %4 = load ptr, ptr %3, align 8
  %5 = load i32, ptr %1, align 8
  %6 = load ptr, ptr @stderr, align 8
  %7 = tail call i64 @fwrite(ptr nonnull @.str.117, i64 26, i64 1, ptr %6) #7
  %8 = getelementptr inbounds i8, ptr %0, i64 8
  %9 = load ptr, ptr %8, align 8
  %.not.i = icmp eq ptr %9, null
  br i1 %.not.i, label %24, label %10

10:                                               ; preds = %2
  %11 = getelementptr inbounds i8, ptr %0, i64 16
  %12 = load ptr, ptr %11, align 8
  %.not8.i = icmp eq ptr %12, null
  br i1 %.not8.i, label %21, label %13

13:                                               ; preds = %10
  %14 = getelementptr inbounds i8, ptr %12, i64 8
  %15 = load ptr, ptr %14, align 8
  %.not9.i = icmp eq ptr %15, null
  br i1 %.not9.i, label %21, label %16

16:                                               ; preds = %13
  %17 = load ptr, ptr @stderr, align 8
  %18 = getelementptr inbounds i8, ptr %15, i64 24
  %19 = getelementptr inbounds i8, ptr %9, i64 24
  %20 = tail call i32 (ptr, ptr, ...) @fprintf(ptr noundef %17, ptr noundef nonnull @.str.70, ptr noundef nonnull %18, ptr noundef nonnull %19) #8
  br label %zend_dump_op_array_name.exit

21:                                               ; preds = %13, %10
  %22 = load ptr, ptr @stderr, align 8
  %23 = getelementptr inbounds i8, ptr %9, i64 24
  %fputs.i = tail call i32 @fputs(ptr nonnull %23, ptr %22) #7
  br label %zend_dump_op_array_name.exit

24:                                               ; preds = %2
  %25 = load ptr, ptr @stderr, align 8
  %26 = tail call i64 @fwrite(ptr nonnull @.str.71, i64 6, i64 1, ptr %25) #7
  br label %zend_dump_op_array_name.exit

zend_dump_op_array_name.exit:                     ; preds = %16, %21, %24
  %27 = load ptr, ptr @stderr, align 8
  %28 = tail call i64 @fwrite(ptr nonnull @.str.104, i64 2, i64 1, ptr %27) #7
  %29 = icmp sgt i32 %5, 0
  br i1 %29, label %.lr.ph, label %._crit_edge

.lr.ph:                                           ; preds = %zend_dump_op_array_name.exit
  %.not = icmp eq ptr %4, null
  %30 = getelementptr inbounds i8, ptr %0, i64 80
  %31 = getelementptr inbounds i8, ptr %0, i64 112
  br i1 %.not, label %._crit_edge, label %.lr.ph.split.preheader

.lr.ph.split.preheader:                           ; preds = %.lr.ph
  %wide.trip.count = zext nneg i32 %5 to i64
  br label %.lr.ph.split

.lr.ph.split:                                     ; preds = %.lr.ph.split.preheader, %68
  %indvars.iv = phi i64 [ 0, %.lr.ph.split.preheader ], [ %indvars.iv.next, %68 ]
  %32 = getelementptr inbounds %struct._zend_ssa_block, ptr %4, i64 %indvars.iv
  %33 = load ptr, ptr %32, align 8
  %.not22 = icmp eq ptr %33, null
  br i1 %.not22, label %68, label %34

34:                                               ; preds = %.lr.ph.split
  %35 = load ptr, ptr @stderr, align 8
  %36 = trunc i64 %indvars.iv to i32
  %37 = tail call i32 (ptr, ptr, ...) @fprintf(ptr noundef %35, ptr noundef nonnull @.str.112, i32 noundef %36) #8
  %38 = getelementptr inbounds i8, ptr %33, i64 8
  %39 = load i32, ptr %38, align 8
  %40 = icmp sgt i32 %39, -1
  %41 = load ptr, ptr @stderr, align 8
  br i1 %40, label %42, label %44

42:                                               ; preds = %34
  %43 = tail call i64 @fwrite(ptr nonnull @.str.118, i64 10, i64 1, ptr %41) #7
  br label %.preheader

44:                                               ; preds = %34
  %45 = tail call i64 @fwrite(ptr nonnull @.str.119, i64 11, i64 1, ptr %41) #7
  br label %.preheader

.preheader:                                       ; preds = %44, %42
  br label %46

46:                                               ; preds = %.preheader, %zend_dump_var.exit
  %.017 = phi ptr [ %64, %zend_dump_var.exit ], [ %33, %.preheader ]
  %.not23 = phi i1 [ true, %zend_dump_var.exit ], [ false, %.preheader ]
  br i1 %.not23, label %47, label %50

47:                                               ; preds = %46
  %48 = load ptr, ptr @stderr, align 8
  %49 = tail call i64 @fwrite(ptr nonnull @.str, i64 2, i64 1, ptr %48) #7
  br label %50

50:                                               ; preds = %46, %47
  %51 = getelementptr inbounds i8, ptr %.017, i64 64
  %52 = load i32, ptr %51, align 8
  %53 = load i32, ptr %30, align 8
  %54 = icmp sgt i32 %53, %52
  %55 = load ptr, ptr @stderr, align 8
  br i1 %54, label %56, label %.thread.i

56:                                               ; preds = %50
  %57 = load ptr, ptr %31, align 8
  %58 = sext i32 %52 to i64
  %59 = getelementptr inbounds ptr, ptr %57, i64 %58
  %60 = load ptr, ptr %59, align 8
  %61 = getelementptr inbounds i8, ptr %60, i64 24
  %62 = tail call i32 (ptr, ptr, ...) @fprintf(ptr noundef %55, ptr noundef nonnull @.str.13, i32 noundef %52, ptr noundef nonnull %61) #8
  br label %zend_dump_var.exit

.thread.i:                                        ; preds = %50
  %63 = tail call i32 (ptr, ptr, ...) @fprintf(ptr noundef %55, ptr noundef nonnull @.str.16, i32 noundef %52) #8
  br label %zend_dump_var.exit

zend_dump_var.exit:                               ; preds = %56, %.thread.i
  %64 = load ptr, ptr %.017, align 8
  %.not24 = icmp eq ptr %64, null
  br i1 %.not24, label %65, label %46

65:                                               ; preds = %zend_dump_var.exit
  %66 = load ptr, ptr @stderr, align 8
  %67 = tail call i64 @fwrite(ptr nonnull @.str.120, i64 2, i64 1, ptr %66) #7
  br label %68

68:                                               ; preds = %.lr.ph.split, %65
  %indvars.iv.next = add nuw nsw i64 %indvars.iv, 1
  %exitcond.not = icmp eq i64 %indvars.iv.next, %wide.trip.count
  br i1 %exitcond.not, label %._crit_edge, label %.lr.ph.split

._crit_edge:                                      ; preds = %68, %.lr.ph, %zend_dump_op_array_name.exit
  ret void
}